ccopy_reg
_reconstructor
p1
(csklearn.linear_model.base
LinearRegression
p2
c__builtin__
object
p3
NtRp4
(dp5
S'normalize'
p6
I00
sS'n_jobs'
p7
I1
sS'rank_'
p8
I1
sS'fit_intercept'
p9
I01
sS'_residues'
p10
cnumpy.core.multiarray
scalar
p11
(cnumpy
dtype
p12
(S'f8'
I0
I1
tRp13
(I3
S'<'
NNNI-1
I-1
I0
tbS'{\xb4\x01\xea\x98\xa3\xb2?'
tRp14
sS'coef_'
p15
cnumpy.core.multiarray
_reconstruct
p16
(cnumpy
ndarray
p17
(I0
tS'b'
tRp18
(I1
(I1
tg13
I00
S'\x9e\xe5\x93~3@\xce?'
tbsS'copy_X'
p19
I01
sS'intercept_'
p20
g11
(g13
S'\xb8\x95\xd2\x86db\xe0?'
tRp21
sS'singular_'
p22
g16
(g17
(I0
tS'b'
tRp23
(I1
(I1
tg13
I00
S'[\x9an\x1fN\x8f\n@'
tbsb.